; Function Attrs: null_pointer_is_valid sspstrong uwtable
define internal i32 @frstrans_dissect_RequestVersionVector_request(ptr noundef %0, i32 noundef %1, ptr noundef %2, ptr noundef %3, ptr noundef initializes((72, 80)) %4, ptr noundef %5) #0 {
  %7 = alloca i32, align 4
  %8 = alloca i32, align 4
  %9 = getelementptr inbounds nuw i8, ptr %4, i64 72
  store ptr @.str.220, ptr %9, align 8
  %10 = load i32, ptr @hf_frstrans_frstrans_RequestVersionVector_sequence_number, align 4
  %11 = tail call i32 @PIDL_dissect_uint32(ptr noundef %0, i32 noundef %1, ptr noundef %2, ptr noundef %3, ptr noundef %4, ptr noundef %5, i32 noundef %10, i32 noundef 0)
  %12 = tail call i32 @dissect_deferred_pointers(ptr noundef %2, ptr noundef %0, i32 noundef %11, ptr noundef %4, ptr noundef %5)
  %13 = load i32, ptr @hf_frstrans_frstrans_RequestVersionVector_connection_guid, align 4
  %14 = tail call i32 @dissect_ndr_uuid_t(ptr noundef %0, i32 noundef %12, ptr noundef %2, ptr noundef %3, ptr noundef %4, ptr noundef %5, i32 noundef %13, ptr noundef null)
  %15 = tail call i32 @dissect_deferred_pointers(ptr noundef %2, ptr noundef %0, i32 noundef %14, ptr noundef %4, ptr noundef %5)
  %16 = load i32, ptr @hf_frstrans_frstrans_RequestVersionVector_content_set_guid, align 4
  %17 = tail call i32 @dissect_ndr_uuid_t(ptr noundef %0, i32 noundef %15, ptr noundef %2, ptr noundef %3, ptr noundef %4, ptr noundef %5, i32 noundef %16, ptr noundef null)
  %18 = tail call i32 @dissect_deferred_pointers(ptr noundef %2, ptr noundef %0, i32 noundef %17, ptr noundef %4, ptr noundef %5)
  %19 = load i32, ptr @hf_frstrans_frstrans_RequestVersionVector_request_type, align 4
  call void @llvm.lifetime.start.p0(i64 4, ptr nonnull %8) #4
  store i32 0, ptr %8, align 4
  %20 = call i32 @dissect_ndr_uint1632(ptr noundef %0, i32 noundef %18, ptr noundef %2, ptr noundef %3, ptr noundef %4, ptr noundef %5, i32 noundef %19, ptr noundef nonnull %8)
  call void @llvm.lifetime.end.p0(i64 4, ptr nonnull %8) #4
  %21 = call i32 @dissect_deferred_pointers(ptr noundef %2, ptr noundef %0, i32 noundef %20, ptr noundef %4, ptr noundef %5)
  %22 = load i32, ptr @hf_frstrans_frstrans_RequestVersionVector_change_type, align 4
  call void @llvm.lifetime.start.p0(i64 4, ptr nonnull %7) #4
  store i32 0, ptr %7, align 4
  %23 = call i32 @dissect_ndr_uint1632(ptr noundef %0, i32 noundef %21, ptr noundef %2, ptr noundef %3, ptr noundef %4, ptr noundef %5, i32 noundef %22, ptr noundef nonnull %7)
  call void @llvm.lifetime.end.p0(i64 4, ptr nonnull %7) #4
  %24 = call i32 @dissect_deferred_pointers(ptr noundef %2, ptr noundef %0, i32 noundef %23, ptr noundef %4, ptr noundef %5)
  %25 = load i32, ptr @hf_frstrans_frstrans_RequestVersionVector_vv_generation, align 4
  %26 = call i32 @dissect_ndr_uint64(ptr noundef %0, i32 noundef %24, ptr noundef %2, ptr noundef %3, ptr noundef %4, ptr noundef %5, i32 noundef %25, ptr noundef null)
  %27 = call i32 @dissect_deferred_pointers(ptr noundef %2, ptr noundef %0, i32 noundef %26, ptr noundef %4, ptr noundef %5)
  ret i32 %27
}